target datalayout = "e-m:e-p270:32:32-p271:32:32-p272:64:64-i64:64-i128:128-f80:128-n8:16:32:64-S128"
target triple = "x86_64-pc-linux-gnu"

%struct.IndexScanDescData = type { ptr, ptr, ptr, i32, i32, ptr, ptr, i8, i8, i8, i8, i8, ptr, ptr, ptr, ptr, ptr, %struct.ItemPointerData, i8, ptr, i8, ptr, ptr, i8, ptr }
%struct.ItemPointerData = type { %struct.BlockIdData, i16 }
%struct.BlockIdData = type { i16, i16 }
%struct.HashScanOpaqueData = type { i32, i32, i32, i8, i8, ptr, i32, %struct.HashScanPosData }
%struct.HashScanPosData = type { i32, i32, i32, i32, i32, i32, i32, [408 x %struct.HashScanPosItem] }
%struct.HashScanPosItem = type { %struct.ItemPointerData, i16 }
%struct.PageHeaderData = type { %struct.PageXLogRecPtr, i16, i16, i16, i16, i16, i16, i32, [0 x %struct.ItemIdData] }
%struct.PageXLogRecPtr = type { i32, i32 }
%struct.ItemIdData = type { i32 }
%struct.HashPageOpaqueData = type { i32, i32, i32, i16, i16 }

@LocalBufferBlockPointers = external global ptr, align 8
@BufferBlocks = external global ptr, align 8
@InterruptPending = external global i32, align 4

; Function Attrs: inlinehint nounwind uwtable
define internal ptr @BufferGetBlock(i32 noundef %0) #3 {
  %2 = alloca ptr, align 8
  %3 = alloca i32, align 4
  store i32 %0, ptr %3, align 4
  %4 = load i32, ptr %3, align 4
  %5 = icmp slt i32 %4, 0
  br i1 %5, label %6, label %14

6:                                                ; preds = %1
  %7 = load ptr, ptr @LocalBufferBlockPointers, align 8
  %8 = load i32, ptr %3, align 4
  %9 = sub i32 0, %8
  %10 = sub i32 %9, 1
  %11 = sext i32 %10 to i64
  %12 = getelementptr inbounds ptr, ptr %7, i64 %11
  %13 = load ptr, ptr %12, align 8
  store ptr %13, ptr %2, align 8
  br label %21

14:                                               ; preds = %1
  %15 = load ptr, ptr @BufferBlocks, align 8
  %16 = load i32, ptr %3, align 4
  %17 = sub i32 %16, 1
  %18 = sext i32 %17 to i64
  %19 = mul i64 %18, 8192
  %20 = getelementptr inbounds nuw i8, ptr %15, i64 %19
  store ptr %20, ptr %2, align 8
  br label %21

21:                                               ; preds = %14, %6
  %22 = load ptr, ptr %2, align 8
  ret ptr %22
}

; Function Attrs: inlinehint nounwind uwtable
define internal void @PageValidateSpecialPointer(ptr noundef %0) #3 {
  %2 = alloca ptr, align 8
  store ptr %0, ptr %2, align 8
  ret void
}

; Function Attrs: inlinehint nounwind uwtable
define internal ptr @BufferGetPage(i32 noundef %0) #3 {
  %2 = alloca i32, align 4
  store i32 %0, ptr %2, align 4
  %3 = load i32, ptr %2, align 4
  %4 = call ptr @BufferGetBlock(i32 noundef %3)
  ret ptr %4
}

; Function Attrs: inlinehint nounwind uwtable
define internal zeroext i1 @BlockNumberIsValid(i32 noundef %0) #3 {
  %2 = alloca i32, align 4
  store i32 %0, ptr %2, align 4
  %3 = load i32, ptr %2, align 4
  %4 = icmp ne i32 %3, -1
  ret i1 %4
}

; Function Attrs: nounwind uwtable
define internal void @_hash_readnext(ptr noundef %0, ptr noundef %1, ptr noundef %2, ptr noundef %3) #0 {
  %5 = alloca ptr, align 8
  %6 = alloca ptr, align 8
  %7 = alloca ptr, align 8
  %8 = alloca ptr, align 8
  %9 = alloca i32, align 4
  %10 = alloca ptr, align 8
  %11 = alloca ptr, align 8
  %12 = alloca i8, align 1
  store ptr %0, ptr %5, align 8
  store ptr %1, ptr %6, align 8
  store ptr %2, ptr %7, align 8
  store ptr %3, ptr %8, align 8
  call void @llvm.lifetime.start.p0(i64 4, ptr %9) #7
  call void @llvm.lifetime.start.p0(i64 8, ptr %10) #7
  %13 = load ptr, ptr %5, align 8
  %14 = getelementptr inbounds nuw %struct.IndexScanDescData, ptr %13, i32 0, i32 1
  %15 = load ptr, ptr %14, align 8
  store ptr %15, ptr %10, align 8
  call void @llvm.lifetime.start.p0(i64 8, ptr %11) #7
  %16 = load ptr, ptr %5, align 8
  %17 = getelementptr inbounds nuw %struct.IndexScanDescData, ptr %16, i32 0, i32 12
  %18 = load ptr, ptr %17, align 8
  store ptr %18, ptr %11, align 8
  call void @llvm.lifetime.start.p0(i64 1, ptr %12) #7
  store i8 0, ptr %12, align 1
  %19 = load ptr, ptr %8, align 8
  %20 = load ptr, ptr %19, align 8
  %21 = getelementptr inbounds nuw %struct.HashPageOpaqueData, ptr %20, i32 0, i32 1
  %22 = load i32, ptr %21, align 4
  store i32 %22, ptr %9, align 4
  %23 = load ptr, ptr %6, align 8
  %24 = load i32, ptr %23, align 4
  %25 = load ptr, ptr %11, align 8
  %26 = getelementptr inbounds nuw %struct.HashScanOpaqueData, ptr %25, i32 0, i32 1
  %27 = load i32, ptr %26, align 4
  %28 = icmp eq i32 %24, %27
  br i1 %28, label %36, label %29

29:                                               ; preds = %4
  %30 = load ptr, ptr %6, align 8
  %31 = load i32, ptr %30, align 4
  %32 = load ptr, ptr %11, align 8
  %33 = getelementptr inbounds nuw %struct.HashScanOpaqueData, ptr %32, i32 0, i32 2
  %34 = load i32, ptr %33, align 8
  %35 = icmp eq i32 %31, %34
  br i1 %35, label %36, label %39

36:                                               ; preds = %29, %4
  %37 = load ptr, ptr %6, align 8
  %38 = load i32, ptr %37, align 4
  call void @LockBuffer(i32 noundef %38, i32 noundef 0)
  br label %43

39:                                               ; preds = %29
  %40 = load ptr, ptr %10, align 8
  %41 = load ptr, ptr %6, align 8
  %42 = load i32, ptr %41, align 4
  call void @_hash_relbuf(ptr noundef %40, i32 noundef %42)
  br label %43

43:                                               ; preds = %39, %36
  %44 = load ptr, ptr %6, align 8
  store i32 0, ptr %44, align 4
  br label %45

45:                                               ; preds = %43
  %46 = load volatile i32, ptr @InterruptPending, align 4
  %47 = icmp ne i32 %46, 0
  %48 = zext i1 %47 to i32
  %49 = sext i32 %48 to i64
  %50 = call i64 @llvm.expect.i64(i64 %49, i64 0)
  %51 = icmp ne i64 %50, 0
  br i1 %51, label %52, label %53

52:                                               ; preds = %45
  call void @ProcessInterrupts()
  br label %53

53:                                               ; preds = %52, %45
  br label %54

54:                                               ; preds = %53
  br label %55

55:                                               ; preds = %54
  %56 = load i32, ptr %9, align 4
  %57 = call zeroext i1 @BlockNumberIsValid(i32 noundef %56)
  br i1 %57, label %58, label %63

58:                                               ; preds = %55
  %59 = load ptr, ptr %10, align 8
  %60 = load i32, ptr %9, align 4
  %61 = call i32 @_hash_getbuf(ptr noundef %59, i32 noundef %60, i32 noundef 1, i32 noundef 1)
  %62 = load ptr, ptr %6, align 8
  store i32 %61, ptr %62, align 4
  store i8 1, ptr %12, align 1
  br label %90

63:                                               ; preds = %55
  %64 = load ptr, ptr %11, align 8
  %65 = getelementptr inbounds nuw %struct.HashScanOpaqueData, ptr %64, i32 0, i32 3
  %66 = load i8, ptr %65, align 4, !range !4, !noundef !5
  %67 = trunc i8 %66 to i1
  br i1 %67, label %68, label %89

68:                                               ; preds = %63
  %69 = load ptr, ptr %11, align 8
  %70 = getelementptr inbounds nuw %struct.HashScanOpaqueData, ptr %69, i32 0, i32 4
  %71 = load i8, ptr %70, align 1, !range !4, !noundef !5
  %72 = trunc i8 %71 to i1
  br i1 %72, label %89, label %73

73:                                               ; preds = %68
  %74 = load ptr, ptr %11, align 8
  %75 = getelementptr inbounds nuw %struct.HashScanOpaqueData, ptr %74, i32 0, i32 2
  %76 = load i32, ptr %75, align 8
  %77 = load ptr, ptr %6, align 8
  store i32 %76, ptr %77, align 4
  %78 = load ptr, ptr %6, align 8
  %79 = load i32, ptr %78, align 4
  call void @LockBuffer(i32 noundef %79, i32 noundef 1)
  %80 = load ptr, ptr %10, align 8
  %81 = load ptr, ptr %6, align 8
  %82 = load i32, ptr %81, align 4
  %83 = call i32 @BufferGetBlockNumber(i32 noundef %82)
  %84 = load ptr, ptr %5, align 8
  %85 = getelementptr inbounds nuw %struct.IndexScanDescData, ptr %84, i32 0, i32 2
  %86 = load ptr, ptr %85, align 8
  call void @PredicateLockPage(ptr noundef %80, i32 noundef %83, ptr noundef %86)
  %87 = load ptr, ptr %11, align 8
  %88 = getelementptr inbounds nuw %struct.HashScanOpaqueData, ptr %87, i32 0, i32 4
  store i8 1, ptr %88, align 1
  store i8 1, ptr %12, align 1
  br label %89

89:                                               ; preds = %73, %68, %63
  br label %90

90:                                               ; preds = %89, %58
  %91 = load i8, ptr %12, align 1, !range !4, !noundef !5
  %92 = trunc i8 %91 to i1
  br i1 %92, label %93, label %110

93:                                               ; preds = %90
  %94 = load ptr, ptr %6, align 8
  %95 = load i32, ptr %94, align 4
  %96 = call ptr @BufferGetPage(i32 noundef %95)
  %97 = load ptr, ptr %7, align 8
  store ptr %96, ptr %97, align 8
  %98 = load ptr, ptr %7, align 8
  %99 = load ptr, ptr %98, align 8
  call void @PageValidateSpecialPointer(ptr noundef %99)
  %100 = load ptr, ptr %7, align 8
  %101 = load ptr, ptr %100, align 8
  %102 = load ptr, ptr %7, align 8
  %103 = load ptr, ptr %102, align 8
  %104 = getelementptr inbounds nuw %struct.PageHeaderData, ptr %103, i32 0, i32 5
  %105 = load i16, ptr %104, align 4
  %106 = zext i16 %105 to i32
  %107 = sext i32 %106 to i64
  %108 = getelementptr inbounds i8, ptr %101, i64 %107
  %109 = load ptr, ptr %8, align 8
  store ptr %108, ptr %109, align 8
  br label %110

110:                                              ; preds = %93, %90
  call void @llvm.lifetime.end.p0(i64 1, ptr %12) #7
  call void @llvm.lifetime.end.p0(i64 8, ptr %11) #7
  call void @llvm.lifetime.end.p0(i64 8, ptr %10) #7
  call void @llvm.lifetime.end.p0(i64 4, ptr %9) #7
  ret void
}