; Function Attrs: nounwind uwtable
define internal fastcc void @_hash_readnext(ptr noundef readonly captures(none) %0, ptr noundef nonnull captures(none) %1, ptr noundef nonnull writeonly captures(none) %2, ptr noundef nonnull captures(none) %3) unnamed_addr #0 {
  %5 = getelementptr inbounds nuw i8, ptr %0, i64 8
  %6 = load ptr, ptr %5, align 8
  %7 = getelementptr inbounds nuw i8, ptr %0, i64 56
  %8 = load ptr, ptr %7, align 8
  %9 = load ptr, ptr %3, align 8
  %10 = getelementptr inbounds nuw i8, ptr %9, i64 4
  %11 = load i32, ptr %10, align 4
  %12 = load i32, ptr %1, align 4
  %13 = getelementptr inbounds nuw i8, ptr %8, i64 4
  %14 = load i32, ptr %13, align 4
  %15 = icmp eq i32 %12, %14
  br i1 %15, label %20, label %16

16:                                               ; preds = %4
  %17 = getelementptr inbounds nuw i8, ptr %8, i64 8
  %18 = load i32, ptr %17, align 8
  %19 = icmp eq i32 %12, %18
  br i1 %19, label %20, label %21

20:                                               ; preds = %16, %4
  tail call void @LockBuffer(i32 noundef %12, i32 noundef 0) #6
  br label %22

21:                                               ; preds = %16
  tail call void @_hash_relbuf(ptr noundef %6, i32 noundef %12) #6
  br label %22

22:                                               ; preds = %21, %20
  store i32 0, ptr %1, align 4
  %23 = load volatile i32, ptr @InterruptPending, align 4
  %.not = icmp eq i32 %23, 0
  br i1 %.not, label %25, label %24, !prof !4

24:                                               ; preds = %22
  tail call void @ProcessInterrupts() #6
  br label %25

25:                                               ; preds = %24, %22
  %.not31 = icmp eq i32 %11, -1
  br i1 %.not31, label %28, label %26

26:                                               ; preds = %25
  %27 = tail call i32 @_hash_getbuf(ptr noundef %6, i32 noundef %11, i32 noundef 1, i32 noundef 1) #6
  store i32 %27, ptr %1, align 4
  br label %.critedge

28:                                               ; preds = %25
  %29 = getelementptr inbounds nuw i8, ptr %8, i64 12
  %30 = load i8, ptr %29, align 4, !range !5, !noundef !6
  %31 = trunc nuw i8 %30 to i1
  br i1 %31, label %32, label %61

32:                                               ; preds = %28
  %33 = getelementptr inbounds nuw i8, ptr %8, i64 13
  %34 = load i8, ptr %33, align 1, !range !5, !noundef !6
  %35 = trunc nuw i8 %34 to i1
  br i1 %35, label %61, label %36

36:                                               ; preds = %32
  %37 = getelementptr inbounds nuw i8, ptr %8, i64 8
  %38 = load i32, ptr %37, align 8
  store i32 %38, ptr %1, align 4
  tail call void @LockBuffer(i32 noundef %38, i32 noundef 1) #6
  %39 = load i32, ptr %1, align 4
  %40 = tail call i32 @BufferGetBlockNumber(i32 noundef %39) #6
  %41 = getelementptr inbounds nuw i8, ptr %0, i64 16
  %42 = load ptr, ptr %41, align 8
  tail call void @PredicateLockPage(ptr noundef %6, i32 noundef %40, ptr noundef %42) #6
  store i8 1, ptr %33, align 1
  %.pr = load i32, ptr %1, align 4
  br label %.critedge

.critedge:                                        ; preds = %36, %26
  %43 = phi i32 [ %.pr, %36 ], [ %27, %26 ]
  %44 = icmp slt i32 %43, 0
  br i1 %44, label %45, label %51

45:                                               ; preds = %.critedge
  %46 = load ptr, ptr @LocalBufferBlockPointers, align 8
  %47 = xor i32 %43, -1
  %48 = zext nneg i32 %47 to i64
  %49 = getelementptr inbounds nuw ptr, ptr %46, i64 %48
  %50 = load ptr, ptr %49, align 8
  br label %BufferGetPage.exit

51:                                               ; preds = %.critedge
  %52 = load ptr, ptr @BufferBlocks, align 8
  %53 = add nsw i32 %43, -1
  %54 = sext i32 %53 to i64
  %55 = shl nsw i64 %54, 13
  %56 = getelementptr inbounds nuw i8, ptr %52, i64 %55
  br label %BufferGetPage.exit

BufferGetPage.exit:                               ; preds = %45, %51
  %.0.i.i = phi ptr [ %50, %45 ], [ %56, %51 ]
  store ptr %.0.i.i, ptr %2, align 8
  %57 = getelementptr inbounds nuw i8, ptr %.0.i.i, i64 16
  %58 = load i16, ptr %57, align 4
  %59 = zext i16 %58 to i64
  %60 = getelementptr inbounds nuw i8, ptr %.0.i.i, i64 %59
  store ptr %60, ptr %3, align 8
  br label %61

61:                                               ; preds = %32, %28, %BufferGetPage.exit
  ret void
}